; Function Attrs: nounwind uwtable
define ptr @l_Lean_Position_instToString(ptr noundef %0) local_unnamed_addr #0 {
  %2 = getelementptr inbounds nuw i8, ptr %0, i64 8
  %3 = load ptr, ptr %2, align 8, !tbaa !4
  %4 = ptrtoint ptr %3 to i64
  %5 = and i64 %4, 1
  %.not = icmp eq i64 %5, 0
  br i1 %.not, label %6, label %lean_inc.exit20

6:                                                ; preds = %1
  %.val.i = load i32, ptr %3, align 4, !tbaa !9
  %7 = icmp sgt i32 %.val.i, 0
  br i1 %7, label %8, label %10, !prof !12

8:                                                ; preds = %6
  %9 = add nuw i32 %.val.i, 1
  store i32 %9, ptr %3, align 4, !tbaa !9
  br label %lean_inc.exit20

10:                                               ; preds = %6
  %.not.i25 = icmp eq i32 %.val.i, 0
  br i1 %.not.i25, label %lean_inc.exit20, label %11

11:                                               ; preds = %10
  tail call void @lean_inc_ref_cold(ptr noundef nonnull %3) #6
  br label %lean_inc.exit20

lean_inc.exit20:                                  ; preds = %11, %10, %8, %1
  %12 = getelementptr inbounds nuw i8, ptr %0, i64 16
  %13 = load ptr, ptr %12, align 8, !tbaa !4
  %14 = ptrtoint ptr %13 to i64
  %15 = and i64 %14, 1
  %.not29 = icmp eq i64 %15, 0
  br i1 %.not29, label %16, label %lean_inc.exit

16:                                               ; preds = %lean_inc.exit20
  %.val.i26 = load i32, ptr %13, align 4, !tbaa !9
  %17 = icmp sgt i32 %.val.i26, 0
  br i1 %17, label %18, label %20, !prof !12

18:                                               ; preds = %16
  %19 = add nuw i32 %.val.i26, 1
  store i32 %19, ptr %13, align 4, !tbaa !9
  br label %lean_inc.exit

20:                                               ; preds = %16
  %.not.i27 = icmp eq i32 %.val.i26, 0
  br i1 %.not.i27, label %lean_inc.exit, label %21

21:                                               ; preds = %20
  tail call void @lean_inc_ref_cold(ptr noundef nonnull %13) #6
  br label %lean_inc.exit

lean_inc.exit:                                    ; preds = %21, %20, %18, %lean_inc.exit20
  %22 = ptrtoint ptr %0 to i64
  %23 = and i64 %22, 1
  %.not30 = icmp eq i64 %23, 0
  br i1 %.not30, label %24, label %lean_dec.exit19

24:                                               ; preds = %lean_inc.exit
  %25 = load i32, ptr %0, align 4, !tbaa !9
  %26 = icmp sgt i32 %25, 1
  br i1 %26, label %27, label %29, !prof !12

27:                                               ; preds = %24
  %28 = add nsw i32 %25, -1
  store i32 %28, ptr %0, align 4, !tbaa !9
  br label %lean_dec.exit19

29:                                               ; preds = %24
  %.not.i = icmp eq i32 %25, 0
  br i1 %.not.i, label %lean_dec.exit19, label %30

30:                                               ; preds = %29
  tail call void @lean_dec_ref_cold(ptr noundef nonnull %0) #6
  br label %lean_dec.exit19

lean_dec.exit19:                                  ; preds = %30, %29, %27, %lean_inc.exit
  %31 = tail call ptr @l___private_Init_Data_Repr_0__Nat_reprFast(ptr noundef %3) #6
  %32 = load ptr, ptr @l_Lean_Position_instToFormat___closed__1, align 8, !tbaa !4
  %33 = tail call ptr @lean_string_append(ptr noundef %32, ptr noundef %31) #6
  %34 = ptrtoint ptr %31 to i64
  %35 = and i64 %34, 1
  %.not31 = icmp eq i64 %35, 0
  br i1 %.not31, label %36, label %lean_dec.exit18

36:                                               ; preds = %lean_dec.exit19
  %37 = load i32, ptr %31, align 4, !tbaa !9
  %38 = icmp sgt i32 %37, 1
  br i1 %38, label %39, label %41, !prof !12

39:                                               ; preds = %36
  %40 = add nsw i32 %37, -1
  store i32 %40, ptr %31, align 4, !tbaa !9
  br label %lean_dec.exit18

41:                                               ; preds = %36
  %.not.i21 = icmp eq i32 %37, 0
  br i1 %.not.i21, label %lean_dec.exit18, label %42

42:                                               ; preds = %41
  tail call void @lean_dec_ref_cold(ptr noundef nonnull %31) #6
  br label %lean_dec.exit18

lean_dec.exit18:                                  ; preds = %42, %41, %39, %lean_dec.exit19
  %43 = load ptr, ptr @l_Lean_Position_instToFormat___closed__3, align 8, !tbaa !4
  %44 = tail call ptr @lean_string_append(ptr noundef %33, ptr noundef %43) #6
  %45 = tail call ptr @l___private_Init_Data_Repr_0__Nat_reprFast(ptr noundef %13) #6
  %46 = tail call ptr @lean_string_append(ptr noundef %44, ptr noundef %45) #6
  %47 = ptrtoint ptr %45 to i64
  %48 = and i64 %47, 1
  %.not32 = icmp eq i64 %48, 0
  br i1 %.not32, label %49, label %lean_dec.exit

49:                                               ; preds = %lean_dec.exit18
  %50 = load i32, ptr %45, align 4, !tbaa !9
  %51 = icmp sgt i32 %50, 1
  br i1 %51, label %52, label %54, !prof !12

52:                                               ; preds = %49
  %53 = add nsw i32 %50, -1
  store i32 %53, ptr %45, align 4, !tbaa !9
  br label %lean_dec.exit

54:                                               ; preds = %49
  %.not.i23 = icmp eq i32 %50, 0
  br i1 %.not.i23, label %lean_dec.exit, label %55

55:                                               ; preds = %54
  tail call void @lean_dec_ref_cold(ptr noundef nonnull %45) #6
  br label %lean_dec.exit

lean_dec.exit:                                    ; preds = %55, %54, %52, %lean_dec.exit18
  %56 = load ptr, ptr @l_Lean_Position_instToFormat___closed__5, align 8, !tbaa !4
  %57 = tail call ptr @lean_string_append(ptr noundef %46, ptr noundef %56) #6
  ret ptr %57
}